; Function Attrs: nounwind uwtable
define noalias nonnull ptr @l___private_Lean_Meta_DiscrTree_0__Lean_Meta_DiscrTree_pushArgs___lambda__1___boxed(ptr noundef %0, ptr noundef %1, ptr noundef %2, ptr noundef %3, ptr noundef %4, ptr noundef %5, ptr noundef %6) local_unnamed_addr #2 {
  tail call void @lean_inc_heartbeat() #7
  %8 = tail call noalias ptr @mi_malloc_small(i64 noundef 24) #7
  %9 = icmp eq ptr %8, null
  br i1 %9, label %10, label %lean_alloc_ctor.exit.i

10:                                               ; preds = %7
  tail call void @lean_internal_panic_out_of_memory() #8
  unreachable

lean_alloc_ctor.exit.i:                           ; preds = %7
  %11 = getelementptr inbounds nuw i8, ptr %8, i64 4
  store i32 1, ptr %8, align 4, !tbaa !4
  store i32 131096, ptr %11, align 4
  %12 = getelementptr inbounds nuw i8, ptr %8, i64 8
  store ptr %0, ptr %12, align 8, !tbaa !9
  %13 = getelementptr inbounds nuw i8, ptr %8, i64 16
  store ptr %1, ptr %13, align 8, !tbaa !9
  tail call void @lean_inc_heartbeat() #7
  %14 = tail call noalias ptr @mi_malloc_small(i64 noundef 24) #7
  %15 = icmp eq ptr %14, null
  br i1 %15, label %16, label %l___private_Lean_Meta_DiscrTree_0__Lean_Meta_DiscrTree_pushArgs___lambda__1.exit

16:                                               ; preds = %lean_alloc_ctor.exit.i
  tail call void @lean_internal_panic_out_of_memory() #8
  unreachable

l___private_Lean_Meta_DiscrTree_0__Lean_Meta_DiscrTree_pushArgs___lambda__1.exit: ; preds = %lean_alloc_ctor.exit.i
  %17 = getelementptr inbounds nuw i8, ptr %14, i64 4
  store i32 1, ptr %14, align 4, !tbaa !4
  store i32 131096, ptr %17, align 4
  %18 = getelementptr inbounds nuw i8, ptr %14, i64 8
  store ptr %8, ptr %18, align 8, !tbaa !9
  %19 = getelementptr inbounds nuw i8, ptr %14, i64 16
  store ptr %6, ptr %19, align 8, !tbaa !9
  %20 = ptrtoint ptr %5 to i64
  %21 = and i64 %20, 1
  %.not = icmp eq i64 %21, 0
  br i1 %.not, label %22, label %lean_dec.exit14

22:                                               ; preds = %l___private_Lean_Meta_DiscrTree_0__Lean_Meta_DiscrTree_pushArgs___lambda__1.exit
  %23 = load i32, ptr %5, align 4, !tbaa !4
  %24 = icmp sgt i32 %23, 1
  br i1 %24, label %25, label %27, !prof !11

25:                                               ; preds = %22
  %26 = add nsw i32 %23, -1
  store i32 %26, ptr %5, align 4, !tbaa !4
  br label %lean_dec.exit14

27:                                               ; preds = %22
  %.not.i = icmp eq i32 %23, 0
  br i1 %.not.i, label %lean_dec.exit14, label %28

28:                                               ; preds = %27
  tail call void @lean_dec_ref_cold(ptr noundef nonnull %5) #7
  br label %lean_dec.exit14

lean_dec.exit14:                                  ; preds = %28, %27, %25, %l___private_Lean_Meta_DiscrTree_0__Lean_Meta_DiscrTree_pushArgs___lambda__1.exit
  %29 = ptrtoint ptr %4 to i64
  %30 = and i64 %29, 1
  %.not21 = icmp eq i64 %30, 0
  br i1 %.not21, label %31, label %lean_dec.exit13

31:                                               ; preds = %lean_dec.exit14
  %32 = load i32, ptr %4, align 4, !tbaa !4
  %33 = icmp sgt i32 %32, 1
  br i1 %33, label %34, label %36, !prof !11

34:                                               ; preds = %31
  %35 = add nsw i32 %32, -1
  store i32 %35, ptr %4, align 4, !tbaa !4
  br label %lean_dec.exit13

36:                                               ; preds = %31
  %.not.i15 = icmp eq i32 %32, 0
  br i1 %.not.i15, label %lean_dec.exit13, label %37

37:                                               ; preds = %36
  tail call void @lean_dec_ref_cold(ptr noundef nonnull %4) #7
  br label %lean_dec.exit13

lean_dec.exit13:                                  ; preds = %37, %36, %34, %lean_dec.exit14
  %38 = ptrtoint ptr %3 to i64
  %39 = and i64 %38, 1
  %.not22 = icmp eq i64 %39, 0
  br i1 %.not22, label %40, label %lean_dec.exit12

40:                                               ; preds = %lean_dec.exit13
  %41 = load i32, ptr %3, align 4, !tbaa !4
  %42 = icmp sgt i32 %41, 1
  br i1 %42, label %43, label %45, !prof !11

43:                                               ; preds = %40
  %44 = add nsw i32 %41, -1
  store i32 %44, ptr %3, align 4, !tbaa !4
  br label %lean_dec.exit12

45:                                               ; preds = %40
  %.not.i17 = icmp eq i32 %41, 0
  br i1 %.not.i17, label %lean_dec.exit12, label %46

46:                                               ; preds = %45
  tail call void @lean_dec_ref_cold(ptr noundef nonnull %3) #7
  br label %lean_dec.exit12

lean_dec.exit12:                                  ; preds = %46, %45, %43, %lean_dec.exit13
  %47 = ptrtoint ptr %2 to i64
  %48 = and i64 %47, 1
  %.not23 = icmp eq i64 %48, 0
  br i1 %.not23, label %49, label %lean_dec.exit

49:                                               ; preds = %lean_dec.exit12
  %50 = load i32, ptr %2, align 4, !tbaa !4
  %51 = icmp sgt i32 %50, 1
  br i1 %51, label %52, label %54, !prof !11

52:                                               ; preds = %49
  %53 = add nsw i32 %50, -1
  store i32 %53, ptr %2, align 4, !tbaa !4
  br label %lean_dec.exit

54:                                               ; preds = %49
  %.not.i19 = icmp eq i32 %50, 0
  br i1 %.not.i19, label %lean_dec.exit, label %55

55:                                               ; preds = %54
  tail call void @lean_dec_ref_cold(ptr noundef nonnull %2) #7
  br label %lean_dec.exit

lean_dec.exit:                                    ; preds = %55, %54, %52, %lean_dec.exit12
  ret ptr %14
}